target datalayout = "e-m:e-p270:32:32-p271:32:32-p272:64:64-i64:64-i128:128-f80:128-n8:16:32:64-S128"
target triple = "x86_64-pc-linux-gnu"

%struct._e_guid_t = type { i32, i16, i16, [8 x i8] }
%struct._address = type { i32, i32, ptr, ptr }
%struct._dcerpc_fragment_key = type { %struct._address, %struct._address, i32, %struct._e_guid_t }

; Function Attrs: nounwind null_pointer_is_valid sspstrong uwtable
define internal i32 @dcerpc_fragment_hash(ptr noundef %0) #10 {
  %2 = alloca ptr, align 8
  %3 = alloca ptr, align 8
  %4 = alloca i32, align 4
  store ptr %0, ptr %2, align 8
  call void @llvm.lifetime.start.p0(i64 8, ptr %3) #19
  %5 = load ptr, ptr %2, align 8
  store ptr %5, ptr %3, align 8
  call void @llvm.lifetime.start.p0(i64 4, ptr %4) #19
  store i32 0, ptr %4, align 4
  %6 = load ptr, ptr %3, align 8
  %7 = getelementptr inbounds nuw %struct._dcerpc_fragment_key, ptr %6, i32 0, i32 2
  %8 = load i32, ptr %7, align 8
  %9 = load i32, ptr %4, align 4
  %10 = add i32 %9, %8
  store i32 %10, ptr %4, align 4
  %11 = load ptr, ptr %3, align 8
  %12 = getelementptr inbounds nuw %struct._dcerpc_fragment_key, ptr %11, i32 0, i32 3
  %13 = getelementptr inbounds nuw %struct._e_guid_t, ptr %12, i32 0, i32 0
  %14 = load i32, ptr %13, align 4
  %15 = load i32, ptr %4, align 4
  %16 = add i32 %15, %14
  store i32 %16, ptr %4, align 4
  %17 = load ptr, ptr %3, align 8
  %18 = getelementptr inbounds nuw %struct._dcerpc_fragment_key, ptr %17, i32 0, i32 3
  %19 = getelementptr inbounds nuw %struct._e_guid_t, ptr %18, i32 0, i32 1
  %20 = load i16, ptr %19, align 4
  %21 = zext i16 %20 to i32
  %22 = shl i32 %21, 16
  %23 = load i32, ptr %4, align 4
  %24 = add i32 %23, %22
  store i32 %24, ptr %4, align 4
  %25 = load ptr, ptr %3, align 8
  %26 = getelementptr inbounds nuw %struct._dcerpc_fragment_key, ptr %25, i32 0, i32 3
  %27 = getelementptr inbounds nuw %struct._e_guid_t, ptr %26, i32 0, i32 2
  %28 = load i16, ptr %27, align 2
  %29 = zext i16 %28 to i32
  %30 = load i32, ptr %4, align 4
  %31 = add i32 %30, %29
  store i32 %31, ptr %4, align 4
  %32 = load i32, ptr %4, align 4
  call void @llvm.lifetime.end.p0(i64 4, ptr %4) #19
  call void @llvm.lifetime.end.p0(i64 8, ptr %3) #19
  ret i32 %32
}