; Function Attrs: mustprogress nofree norecurse nosync nounwind null_pointer_is_valid sspstrong willreturn memory(argmem: read) uwtable
define internal i32 @dcerpc_fragment_hash(ptr noundef readonly captures(none) %0) #7 {
  %2 = getelementptr inbounds nuw i8, ptr %0, i64 48
  %3 = load i32, ptr %2, align 8
  %4 = getelementptr inbounds nuw i8, ptr %0, i64 52
  %5 = load i32, ptr %4, align 4
  %6 = add i32 %5, %3
  %7 = getelementptr inbounds nuw i8, ptr %0, i64 56
  %8 = load i16, ptr %7, align 4
  %9 = zext i16 %8 to i32
  %10 = shl nuw i32 %9, 16
  %11 = add i32 %6, %10
  %12 = getelementptr inbounds nuw i8, ptr %0, i64 58
  %13 = load i16, ptr %12, align 2
  %14 = zext i16 %13 to i32
  %15 = add i32 %11, %14
  ret i32 %15
}